target datalayout = "e-m:e-p270:32:32-p271:32:32-p272:64:64-i64:64-i128:128-f80:128-n8:16:32:64-S128"
target triple = "x86_64-pc-linux-gnu"

%struct.AVFilterContext = type { ptr, ptr, ptr, ptr, ptr, i32, ptr, ptr, i32, ptr, ptr, i32, i32, ptr, ptr, ptr, ptr, i32, ptr, i32, i32 }
%struct.VAAPIVPPContext = type { ptr, ptr, ptr, i32, i32, i32, ptr, ptr, %struct._VARectangle, i32, i32, i32, [10 x i32], i32, i32, ptr, ptr }
%struct._VARectangle = type { i16, i16, i16, i16 }
%struct.AVFilterLink = type { ptr, ptr, ptr, ptr, i32, i32, i32, i32, %struct.AVRational, i32, i32, i32, %struct.AVChannelLayout, %struct.AVRational, ptr, i32, %struct.AVFilterFormatsConfig, %struct.AVFilterFormatsConfig }
%struct.AVChannelLayout = type { i32, i32, %union.anon.1, ptr }
%union.anon.1 = type { i64 }
%struct.AVRational = type { i32, i32 }
%struct.AVFilterFormatsConfig = type { ptr, ptr, ptr, ptr, ptr }
%struct.DeintVAAPIContext = type { %struct.VAAPIVPPContext, i32, i32, i32, [5 x %struct._VAProcFilterCapDeinterlacing], i32, %struct._VAProcPipelineCaps, i32, i32, [8 x ptr], i32, i32, i32 }
%struct._VAProcFilterCapDeinterlacing = type { i32, [4 x i32] }
%struct._VAProcPipelineCaps = type { i32, i32, i32, i32, ptr, i32, ptr, i32, i32, i32, i32, i32, i32, ptr, i32, ptr, i32, i32, i32, i32, i32, i32, i32, i32, [14 x i32] }

; Function Attrs: nounwind uwtable
define internal i32 @deint_vaapi_request_frame(ptr noundef %0) #2 {
  %2 = alloca i32, align 4
  %3 = alloca ptr, align 8
  %4 = alloca ptr, align 8
  %5 = alloca ptr, align 8
  %6 = alloca i32, align 4
  %7 = alloca i32, align 4
  store ptr %0, ptr %3, align 8, !tbaa !32
  call void @llvm.lifetime.start.p0(i64 8, ptr %4) #7
  %8 = load ptr, ptr %3, align 8, !tbaa !32
  %9 = getelementptr inbounds nuw %struct.AVFilterLink, ptr %8, i32 0, i32 0
  %10 = load ptr, ptr %9, align 8, !tbaa !98
  store ptr %10, ptr %4, align 8, !tbaa !4
  call void @llvm.lifetime.start.p0(i64 8, ptr %5) #7
  %11 = load ptr, ptr %4, align 8, !tbaa !4
  %12 = getelementptr inbounds nuw %struct.AVFilterContext, ptr %11, i32 0, i32 9
  %13 = load ptr, ptr %12, align 8, !tbaa !9
  store ptr %13, ptr %5, align 8, !tbaa !45
  call void @llvm.lifetime.start.p0(i64 4, ptr %6) #7
  %14 = load ptr, ptr %5, align 8, !tbaa !45
  %15 = getelementptr inbounds nuw %struct.DeintVAAPIContext, ptr %14, i32 0, i32 11
  %16 = load i32, ptr %15, align 4, !tbaa !95
  %17 = icmp ne i32 %16, 0
  br i1 %17, label %18, label %19

18:                                               ; preds = %1
  store i32 -541478725, ptr %2, align 4
  store i32 1, ptr %7, align 4
  br label %53

19:                                               ; preds = %1
  %20 = load ptr, ptr %3, align 8, !tbaa !32
  %21 = getelementptr inbounds nuw %struct.AVFilterLink, ptr %20, i32 0, i32 0
  %22 = load ptr, ptr %21, align 8, !tbaa !98
  %23 = getelementptr inbounds nuw %struct.AVFilterContext, ptr %22, i32 0, i32 4
  %24 = load ptr, ptr %23, align 8, !tbaa !99
  %25 = getelementptr inbounds ptr, ptr %24, i64 0
  %26 = load ptr, ptr %25, align 8, !tbaa !32
  %27 = call i32 @ff_request_frame(ptr noundef %26)
  store i32 %27, ptr %6, align 4, !tbaa !62
  %28 = load i32, ptr %6, align 4, !tbaa !62
  %29 = icmp eq i32 %28, -541478725
  br i1 %29, label %30, label %46

30:                                               ; preds = %19
  %31 = load ptr, ptr %5, align 8, !tbaa !45
  %32 = getelementptr inbounds nuw %struct.DeintVAAPIContext, ptr %31, i32 0, i32 10
  %33 = load i32, ptr %32, align 8, !tbaa !100
  %34 = icmp ne i32 %33, 0
  br i1 %34, label %35, label %46

35:                                               ; preds = %30
  %36 = load ptr, ptr %5, align 8, !tbaa !45
  %37 = getelementptr inbounds nuw %struct.DeintVAAPIContext, ptr %36, i32 0, i32 11
  store i32 1, ptr %37, align 4, !tbaa !95
  %38 = load ptr, ptr %3, align 8, !tbaa !32
  %39 = getelementptr inbounds nuw %struct.AVFilterLink, ptr %38, i32 0, i32 0
  %40 = load ptr, ptr %39, align 8, !tbaa !98
  %41 = getelementptr inbounds nuw %struct.AVFilterContext, ptr %40, i32 0, i32 4
  %42 = load ptr, ptr %41, align 8, !tbaa !99
  %43 = getelementptr inbounds ptr, ptr %42, i64 0
  %44 = load ptr, ptr %43, align 8, !tbaa !32
  %45 = call i32 @deint_vaapi_filter_frame(ptr noundef %44, ptr noundef null)
  br label %52

46:                                               ; preds = %30, %19
  %47 = load i32, ptr %6, align 4, !tbaa !62
  %48 = icmp slt i32 %47, 0
  br i1 %48, label %49, label %51

49:                                               ; preds = %46
  %50 = load i32, ptr %6, align 4, !tbaa !62
  store i32 %50, ptr %2, align 4
  store i32 1, ptr %7, align 4
  br label %53

51:                                               ; preds = %46
  br label %52

52:                                               ; preds = %51, %35
  store i32 0, ptr %2, align 4
  store i32 1, ptr %7, align 4
  br label %53

53:                                               ; preds = %52, %49, %18
  call void @llvm.lifetime.end.p0(i64 4, ptr %6) #7
  call void @llvm.lifetime.end.p0(i64 8, ptr %5) #7
  call void @llvm.lifetime.end.p0(i64 8, ptr %4) #7
  %54 = load i32, ptr %2, align 4
  ret i32 %54
}