; Function Attrs: nounwind uwtable
define internal range(i32 -2147483648, 1) i32 @deint_vaapi_request_frame(ptr noundef readonly captures(none) %0) #2 {
  %2 = load ptr, ptr %0, align 8, !tbaa !90
  %3 = getelementptr inbounds nuw i8, ptr %2, i64 72
  %4 = load ptr, ptr %3, align 8, !tbaa !4
  %5 = getelementptr inbounds nuw i8, ptr %4, i64 516
  %6 = load i32, ptr %5, align 4, !tbaa !88
  %.not = icmp eq i32 %6, 0
  br i1 %.not, label %7, label %.thread

7:                                                ; preds = %1
  %8 = getelementptr inbounds nuw i8, ptr %2, i64 32
  %9 = load ptr, ptr %8, align 8, !tbaa !91
  %10 = load ptr, ptr %9, align 8, !tbaa !38
  %11 = tail call i32 @ff_request_frame(ptr noundef %10) #6
  %12 = icmp eq i32 %11, -541478725
  br i1 %12, label %13, label %22

13:                                               ; preds = %7
  %14 = getelementptr inbounds nuw i8, ptr %4, i64 512
  %15 = load i32, ptr %14, align 8, !tbaa !92
  %.not11 = icmp eq i32 %15, 0
  br i1 %.not11, label %.thread, label %16

16:                                               ; preds = %13
  store i32 1, ptr %5, align 4, !tbaa !88
  %17 = load ptr, ptr %0, align 8, !tbaa !90
  %18 = getelementptr inbounds nuw i8, ptr %17, i64 32
  %19 = load ptr, ptr %18, align 8, !tbaa !91
  %20 = load ptr, ptr %19, align 8, !tbaa !38
  %21 = tail call i32 @deint_vaapi_filter_frame(ptr noundef %20, ptr noundef null)
  br label %24

22:                                               ; preds = %7
  %23 = icmp slt i32 %11, 0
  br i1 %23, label %.thread, label %24

24:                                               ; preds = %22, %16
  br label %.thread

.thread:                                          ; preds = %13, %22, %1, %24
  %.0 = phi i32 [ 0, %24 ], [ -541478725, %1 ], [ %11, %22 ], [ -541478725, %13 ]
  ret i32 %.0
}